target datalayout = "e-m:e-p270:32:32-p271:32:32-p272:64:64-i64:64-i128:128-f80:128-n8:16:32:64-S128"
target triple = "x86_64-unknown-linux-gnu"

%"struct.icu_75::FormattedStringBuilder::Field" = type { i8 }
%"class.icu_75::UnicodeString" = type { %"class.icu_75::Replaceable", %"union.icu_75::UnicodeString::StackBufferOrFields" }
%"class.icu_75::Replaceable" = type { %"class.icu_75::UObject" }
%"class.icu_75::UObject" = type { ptr }
%"union.icu_75::UnicodeString::StackBufferOrFields" = type { %struct.anon.0, [32 x i8] }
%struct.anon.0 = type { i16, i32, i32, ptr }
%"class.icu_75::number::impl::MicroPropsGenerator" = type { ptr }
%"class.icu_75::number::impl::SimpleModifier" = type { %"class.icu_75::number::impl::Modifier", %"class.icu_75::UnicodeString", %"struct.icu_75::FormattedStringBuilder::Field", i8, i32, i32, i32, %"struct.icu_75::number::impl::Modifier::Parameters" }
%"class.icu_75::number::impl::Modifier" = type { ptr }
%"struct.icu_75::number::impl::Modifier::Parameters" = type { ptr, i32, i32 }
%"class.icu_75::MeasureUnit" = type <{ %"class.icu_75::UObject", ptr, i16, i8, [5 x i8] }>
%"struct.icu_75::number::impl::MicroProps" = type <{ %"class.icu_75::number::impl::MicroPropsGenerator", %"struct.icu_75::number::impl::SimpleMicroProps", %"class.icu_75::number::impl::RoundingImpl", %"class.icu_75::number::impl::Padder", %"class.icu_75::number::IntegerWidth", i32, [9 x i8], [3 x i8], ptr, ptr, ptr, ptr, %struct.anon.7, %"class.icu_75::MeasureUnit", %"class.icu_75::number::impl::IntMeasures", i32, i32, i8, [7 x i8] }>
%"struct.icu_75::number::impl::SimpleMicroProps" = type { [4 x i8], %"class.icu_75::number::impl::Grouper", i8, i32, %"class.icu_75::UnicodeString", ptr }
%"class.icu_75::number::impl::Grouper" = type { i16, i16, i16, i32 }
%"class.icu_75::number::impl::RoundingImpl" = type <{ %"class.icu_75::number::Precision", i32, i8, [3 x i8] }>
%"class.icu_75::number::Precision" = type <{ i32, [4 x i8], %"union.icu_75::number::Precision::PrecisionUnion", i32, [4 x i8] }>
%"union.icu_75::number::Precision::PrecisionUnion" = type { %"struct.icu_75::number::Precision::PrecisionUnion::IncrementSettings" }
%"struct.icu_75::number::Precision::PrecisionUnion::IncrementSettings" = type { i64, i16, i16 }
%"class.icu_75::number::impl::Padder" = type { i32, %union.anon.3 }
%union.anon.3 = type { %struct.anon.4 }
%struct.anon.4 = type { i32, i32 }
%"class.icu_75::number::IntegerWidth" = type <{ %union.anon.5, i8, [3 x i8] }>
%union.anon.5 = type { i32, [4 x i8] }
%struct.anon.7 = type { %"class.icu_75::number::impl::ScientificModifier", %"class.icu_75::number::impl::EmptyModifier", %"class.icu_75::number::impl::EmptyModifier", %"class.icu_75::number::impl::MultiplierFormatHandler", %"class.icu_75::number::impl::SimpleModifier" }
%"class.icu_75::number::impl::ScientificModifier" = type { %"class.icu_75::number::impl::Modifier", i32, ptr }
%"class.icu_75::number::impl::EmptyModifier" = type <{ %"class.icu_75::number::impl::Modifier", i8, [7 x i8] }>
%"class.icu_75::number::impl::MultiplierFormatHandler" = type { %"class.icu_75::number::impl::MicroPropsGenerator", %"class.icu_75::number::Scale", ptr }
%"class.icu_75::number::Scale" = type <{ i32, [4 x i8], ptr, i32, [4 x i8] }>
%"class.icu_75::number::impl::IntMeasures" = type <{ %"class.icu_75::MaybeStackArray.8", i32, [4 x i8] }>
%"class.icu_75::MaybeStackArray.8" = type { ptr, i32, i8, [2 x i64] }
%"class.icu_75::number::impl::LongNameMultiplexer" = type { %"class.icu_75::number::impl::MicroPropsGenerator", %"class.icu_75::MemoryPool.13", %"class.icu_75::MemoryPool.15", %"class.icu_75::MaybeStackArray.17", %"class.icu_75::LocalArray.18", ptr }
%"class.icu_75::MemoryPool.13" = type { i32, %"class.icu_75::MaybeStackArray.14" }
%"class.icu_75::MaybeStackArray.14" = type { ptr, i32, i8, [8 x ptr] }
%"class.icu_75::MemoryPool.15" = type { i32, %"class.icu_75::MaybeStackArray.16" }
%"class.icu_75::MaybeStackArray.16" = type { ptr, i32, i8, [8 x ptr] }
%"class.icu_75::MaybeStackArray.17" = type { ptr, i32, i8, [8 x ptr] }
%"class.icu_75::LocalArray.18" = type { %"class.icu_75::LocalPointerBase.19" }
%"class.icu_75::LocalPointerBase.19" = type { ptr }

; Function Attrs: mustprogress nounwind uwtable
define internal noundef signext i8 @_ZL9U_FAILURE10UErrorCode(i32 noundef %code) #0 {
entry:
  %code.addr = alloca i32, align 4
  store i32 %code, ptr %code.addr, align 4
  %0 = load i32, ptr %code.addr, align 4
  %cmp = icmp sgt i32 %0, 0
  %conv = zext i1 %cmp to i8
  ret i8 %conv
}

; Function Attrs: mustprogress nounwind uwtable
define linkonce_odr noundef nonnull align 8 dereferenceable(8) ptr @_ZNK6icu_7515MaybeStackArrayIPNS_6number4impl19MicroPropsGeneratorELi8EEixEl(ptr noundef nonnull align 8 dereferenceable(80) %this, i64 noundef %i) #0 comdat align 2 {
entry:
  %this.addr = alloca ptr, align 8
  %i.addr = alloca i64, align 8
  store ptr %this, ptr %this.addr, align 8
  store i64 %i, ptr %i.addr, align 8
  %this1 = load ptr, ptr %this.addr, align 8
  %ptr = getelementptr inbounds %"class.icu_75::MaybeStackArray.17", ptr %this1, i32 0, i32 0
  %0 = load ptr, ptr %ptr, align 8
  %1 = load i64, ptr %i.addr, align 8
  %arrayidx = getelementptr inbounds ptr, ptr %0, i64 %1
  ret ptr %arrayidx
}

; Function Attrs: mustprogress nounwind uwtable
define linkonce_odr noundef nonnull align 8 dereferenceable(19) ptr @_ZNK6icu_7510LocalArrayINS_11MeasureUnitEEixEl(ptr noundef nonnull align 8 dereferenceable(8) %this, i64 noundef %i) #0 comdat align 2 {
entry:
  %this.addr = alloca ptr, align 8
  %i.addr = alloca i64, align 8
  store ptr %this, ptr %this.addr, align 8
  store i64 %i, ptr %i.addr, align 8
  %this1 = load ptr, ptr %this.addr, align 8
  %ptr = getelementptr inbounds %"class.icu_75::LocalPointerBase.19", ptr %this1, i32 0, i32 0
  %0 = load ptr, ptr %ptr, align 8
  %1 = load i64, ptr %i.addr, align 8
  %arrayidx = getelementptr inbounds %"class.icu_75::MeasureUnit", ptr %0, i64 %1
  ret ptr %arrayidx
}

; Function Attrs: mustprogress nounwind uwtable
define linkonce_odr noundef i32 @_ZNK6icu_7515MaybeStackArrayIPNS_6number4impl19MicroPropsGeneratorELi8EE11getCapacityEv(ptr noundef nonnull align 8 dereferenceable(80) %this) #0 comdat align 2 {
entry:
  %this.addr = alloca ptr, align 8
  store ptr %this, ptr %this.addr, align 8
  %this1 = load ptr, ptr %this.addr, align 8
  %capacity = getelementptr inbounds %"class.icu_75::MaybeStackArray.17", ptr %this1, i32 0, i32 1
  %0 = load i32, ptr %capacity, align 8
  ret i32 %0
}

; Function Attrs: mustprogress uwtable
define void @_ZNK6icu_756number4impl19LongNameMultiplexer15processQuantityERNS1_15DecimalQuantityERNS1_10MicroPropsER10UErrorCode(ptr noundef nonnull align 8 dereferenceable(280) %this, ptr noundef nonnull align 8 dereferenceable(66) %quantity, ptr noundef nonnull align 8 dereferenceable(489) %micros, ptr noundef nonnull align 4 dereferenceable(4) %status) unnamed_addr #1 align 2 {
entry:
  %this.addr = alloca ptr, align 8
  %quantity.addr = alloca ptr, align 8
  %micros.addr = alloca ptr, align 8
  %status.addr = alloca ptr, align 8
  %i = alloca i32, align 4
  store ptr %this, ptr %this.addr, align 8
  store ptr %quantity, ptr %quantity.addr, align 8
  store ptr %micros, ptr %micros.addr, align 8
  store ptr %status, ptr %status.addr, align 8
  %this1 = load ptr, ptr %this.addr, align 8
  %fParent = getelementptr inbounds %"class.icu_75::number::impl::LongNameMultiplexer", ptr %this1, i32 0, i32 5
  %0 = load ptr, ptr %fParent, align 8
  %1 = load ptr, ptr %quantity.addr, align 8
  %2 = load ptr, ptr %micros.addr, align 8
  %3 = load ptr, ptr %status.addr, align 8
  %vtable = load ptr, ptr %0, align 8
  %vfn = getelementptr inbounds ptr, ptr %vtable, i64 2
  %4 = load ptr, ptr %vfn, align 8
  call void %4(ptr noundef nonnull align 8 dereferenceable(8) %0, ptr noundef nonnull align 8 dereferenceable(66) %1, ptr noundef nonnull align 8 dereferenceable(489) %2, ptr noundef nonnull align 4 dereferenceable(4) %3)
  store i32 0, ptr %i, align 4
  br label %for.cond

for.cond:                                         ; preds = %for.inc, %entry
  %5 = load i32, ptr %i, align 4
  %fHandlers = getelementptr inbounds %"class.icu_75::number::impl::LongNameMultiplexer", ptr %this1, i32 0, i32 3
  %call = call noundef i32 @_ZNK6icu_7515MaybeStackArrayIPNS_6number4impl19MicroPropsGeneratorELi8EE11getCapacityEv(ptr noundef nonnull align 8 dereferenceable(80) %fHandlers)
  %cmp = icmp slt i32 %5, %call
  br i1 %cmp, label %for.body, label %for.end

for.body:                                         ; preds = %for.cond
  %fMeasureUnits = getelementptr inbounds %"class.icu_75::number::impl::LongNameMultiplexer", ptr %this1, i32 0, i32 4
  %6 = load i32, ptr %i, align 4
  %conv = sext i32 %6 to i64
  %call2 = call noundef nonnull align 8 dereferenceable(19) ptr @_ZNK6icu_7510LocalArrayINS_11MeasureUnitEEixEl(ptr noundef nonnull align 8 dereferenceable(8) %fMeasureUnits, i64 noundef %conv)
  %7 = load ptr, ptr %micros.addr, align 8
  %outputUnit = getelementptr inbounds %"struct.icu_75::number::impl::MicroProps", ptr %7, i32 0, i32 13
  %vtable3 = load ptr, ptr %call2, align 8
  %vfn4 = getelementptr inbounds ptr, ptr %vtable3, i64 4
  %8 = load ptr, ptr %vfn4, align 8
  %call5 = call noundef zeroext i1 %8(ptr noundef nonnull align 8 dereferenceable(19) %call2, ptr noundef nonnull align 8 dereferenceable(8) %outputUnit)
  br i1 %call5, label %if.then, label %if.end

if.then:                                          ; preds = %for.body
  %fHandlers6 = getelementptr inbounds %"class.icu_75::number::impl::LongNameMultiplexer", ptr %this1, i32 0, i32 3
  %9 = load i32, ptr %i, align 4
  %conv7 = sext i32 %9 to i64
  %call8 = call noundef nonnull align 8 dereferenceable(8) ptr @_ZNK6icu_7515MaybeStackArrayIPNS_6number4impl19MicroPropsGeneratorELi8EEixEl(ptr noundef nonnull align 8 dereferenceable(80) %fHandlers6, i64 noundef %conv7)
  %10 = load ptr, ptr %call8, align 8
  %11 = load ptr, ptr %quantity.addr, align 8
  %12 = load ptr, ptr %micros.addr, align 8
  %13 = load ptr, ptr %status.addr, align 8
  %vtable9 = load ptr, ptr %10, align 8
  %vfn10 = getelementptr inbounds ptr, ptr %vtable9, i64 2
  %14 = load ptr, ptr %vfn10, align 8
  call void %14(ptr noundef nonnull align 8 dereferenceable(8) %10, ptr noundef nonnull align 8 dereferenceable(66) %11, ptr noundef nonnull align 8 dereferenceable(489) %12, ptr noundef nonnull align 4 dereferenceable(4) %13)
  br label %return

if.end:                                           ; preds = %for.body
  br label %for.inc

for.inc:                                          ; preds = %if.end
  %15 = load i32, ptr %i, align 4
  %inc = add nsw i32 %15, 1
  store i32 %inc, ptr %i, align 4
  br label %for.cond, !llvm.loop !20

for.end:                                          ; preds = %for.cond
  %16 = load ptr, ptr %status.addr, align 8
  %17 = load i32, ptr %16, align 4
  %call11 = call noundef signext i8 @_ZL9U_FAILURE10UErrorCode(i32 noundef %17)
  %tobool = icmp ne i8 %call11, 0
  br i1 %tobool, label %if.then12, label %if.end13

if.then12:                                        ; preds = %for.end
  br label %return

if.end13:                                         ; preds = %for.end
  %18 = load ptr, ptr %status.addr, align 8
  store i32 5, ptr %18, align 4
  br label %return

return:                                           ; preds = %if.end13, %if.then12, %if.then
  ret void
}