; Function Attrs: mustprogress uwtable
define void @_ZNK6icu_756number4impl19LongNameMultiplexer15processQuantityERNS1_15DecimalQuantityERNS1_10MicroPropsER10UErrorCode(ptr nocapture noundef nonnull readonly align 8 dereferenceable(280) %this, ptr noundef nonnull align 8 dereferenceable(66) %quantity, ptr noundef nonnull align 8 dereferenceable(489) %micros, ptr noundef nonnull align 4 dereferenceable(4) %status) unnamed_addr #1 align 2 {
entry:
  %fParent = getelementptr inbounds i8, ptr %this, i64 272
  %0 = load ptr, ptr %fParent, align 8
  %vtable = load ptr, ptr %0, align 8
  %vfn = getelementptr inbounds i8, ptr %vtable, i64 16
  %1 = load ptr, ptr %vfn, align 8
  tail call void %1(ptr noundef nonnull align 8 dereferenceable(8) %0, ptr noundef nonnull align 8 dereferenceable(66) %quantity, ptr noundef nonnull align 8 dereferenceable(489) %micros, ptr noundef nonnull align 4 dereferenceable(4) %status)
  %capacity.i = getelementptr inbounds i8, ptr %this, i64 192
  %2 = load i32, ptr %capacity.i, align 8
  %cmp12 = icmp sgt i32 %2, 0
  br i1 %cmp12, label %for.body.lr.ph, label %for.end

for.body.lr.ph:                                   ; preds = %entry
  %fMeasureUnits = getelementptr inbounds i8, ptr %this, i64 264
  %outputUnit = getelementptr inbounds i8, ptr %micros, i64 416
  br label %for.body

for.cond:                                         ; preds = %for.body
  %indvars.iv.next = add nuw nsw i64 %indvars.iv, 1
  %3 = load i32, ptr %capacity.i, align 8
  %4 = sext i32 %3 to i64
  %cmp = icmp slt i64 %indvars.iv.next, %4
  br i1 %cmp, label %for.body, label %for.end, !llvm.loop !73

for.body:                                         ; preds = %for.body.lr.ph, %for.cond
  %indvars.iv = phi i64 [ 0, %for.body.lr.ph ], [ %indvars.iv.next, %for.cond ]
  %5 = load ptr, ptr %fMeasureUnits, align 8
  %arrayidx.i = getelementptr inbounds %"class.icu_75::MeasureUnit", ptr %5, i64 %indvars.iv
  %vtable3 = load ptr, ptr %arrayidx.i, align 8
  %vfn4 = getelementptr inbounds i8, ptr %vtable3, i64 32
  %6 = load ptr, ptr %vfn4, align 8
  %call5 = tail call noundef zeroext i1 %6(ptr noundef nonnull align 8 dereferenceable(19) %arrayidx.i, ptr noundef nonnull align 8 dereferenceable(8) %outputUnit)
  br i1 %call5, label %if.then, label %for.cond

if.then:                                          ; preds = %for.body
  %fHandlers.le = getelementptr inbounds i8, ptr %this, i64 184
  %7 = load ptr, ptr %fHandlers.le, align 8
  %arrayidx.i10 = getelementptr inbounds ptr, ptr %7, i64 %indvars.iv
  %8 = load ptr, ptr %arrayidx.i10, align 8
  %vtable9 = load ptr, ptr %8, align 8
  %vfn10 = getelementptr inbounds i8, ptr %vtable9, i64 16
  %9 = load ptr, ptr %vfn10, align 8
  tail call void %9(ptr noundef nonnull align 8 dereferenceable(8) %8, ptr noundef nonnull align 8 dereferenceable(66) %quantity, ptr noundef nonnull align 8 dereferenceable(489) %micros, ptr noundef nonnull align 4 dereferenceable(4) %status)
  br label %return

for.end:                                          ; preds = %for.cond, %entry
  %10 = load i32, ptr %status, align 4
  %cmp.i = icmp slt i32 %10, 1
  br i1 %cmp.i, label %if.end13, label %return

if.end13:                                         ; preds = %for.end
  store i32 5, ptr %status, align 4
  br label %return

return:                                           ; preds = %for.end, %if.end13, %if.then
  ret void
}